(lp0
ccopy_reg
_reconstructor
p1
(c__main__
RectLayer
p2
c__builtin__
object
p3
Ntp4
Rp5
(dp6
S'tile_size'
p7
(I20
I20
tp8
sS'tiles'
p9
(dp10
(I7
I3
tp11
g1
(c__main__
RectTile
p12
g3
Ntp13
Rp14
(dp15
S'tile_num'
p16
I74
sbs(I31
I6
tp17
g1
(g12
g3
Ntp18
Rp19
(dp20
g16
I62
sbs(I16
I9
tp21
g14
s(I19
I4
tp22
g14
s(I17
I20
tp23
g14
s(I22
I19
tp24
g14
s(I20
I7
tp25
g14
s(I18
I19
tp26
g14
s(I21
I6
tp27
g14
s(I8
I5
tp28
g14
s(I9
I0
tp29
g1
(g12
g3
Ntp30
Rp31
(dp32
g16
I55
sbs(I10
I7
tp33
g14
s(I11
I22
tp34
g14
s(I0
I17
tp35
g1
(g12
g3
Ntp36
Rp37
(dp38
g16
I46
sbs(I24
I14
tp39
g14
s(I14
I1
tp40
g1
(g12
g3
Ntp41
Rp42
(dp43
g16
I48
sbs(I12
I17
tp44
g14
s(I25
I15
tp45
g14
s(I15
I4
tp46
g14
s(I13
I20
tp47
g14
s(I26
I12
tp48
g14
s(I29
I17
tp49
g14
s(I3
I2
tp50
g14
s(I27
I1
tp51
g1
(g12
g3
Ntp52
Rp53
(dp54
g16
I43
sbs(I30
I14
tp55
g14
s(I4
I5
tp56
g14
s(I28
I10
tp57
g14
s(I31
I15
tp58
g1
(g12
g3
Ntp59
Rp60
(dp61
g16
I51
sbs(I29
I11
tp62
g14
s(I16
I0
tp63
g1
(g12
g3
Ntp64
Rp65
(dp66
g16
I55
sbs(I6
I23
tp67
g1
(g12
g3
Ntp68
Rp69
(dp70
g16
I14
sbs(I30
I16
tp71
g14
s(I19
I13
tp72
g14
s(I17
I13
tp73
g1
(g12
g3
Ntp74
Rp75
(dp76
g16
I66
sbs(I7
I22
tp77
g14
s(I31
I21
tp78
g1
(g12
g3
Ntp79
Rp80
(dp81
g16
I57
sbs(I20
I14
tp82
g14
s(I18
I10
tp83
g1
(g12
g3
Ntp84
Rp85
(dp86
g16
I70
sbs(I23
I19
tp87
g14
s(I21
I15
tp88
g14
s(I8
I12
tp89
g14
s(I22
I12
tp90
g14
s(I9
I9
tp91
g14
s(I23
I9
tp92
g1
(g12
g3
Ntp93
Rp94
(dp95
g16
I72
sbs(I10
I14
tp96
g1
(g12
g3
Ntp97
Rp98
(dp99
g16
I69
sbs(I8
I18
tp100
g1
(g12
g3
Ntp101
Rp102
(dp103
g16
I72
sbs(I11
I15
tp104
g1
(g12
g3
Ntp105
Rp106
(dp107
g16
I71
sbs(I9
I19
tp108
g14
s(I24
I21
tp109
g14
s(I14
I8
tp110
g14
s(I12
I8
tp111
g14
s(I1
I21
tp112
g1
(g12
g3
Ntp113
Rp114
(dp115
g16
I47
sbs(I25
I16
tp116
g14
s(I15
I13
tp117
g1
(g12
g3
Ntp118
Rp119
(dp120
g16
I71
sbs(I13
I13
tp121
g1
(g12
g3
Ntp122
Rp123
(dp124
g16
I69
sbs(I2
I18
tp125
g14
s(I26
I23
tp126
g1
(g12
g3
Ntp127
Rp128
(dp129
g16
I14
sbs(I0
I14
tp130
g1
(g12
g3
Ntp131
Rp132
(dp133
g16
I46
sbs(I3
I11
tp134
g14
s(I27
I6
tp135
g1
(g12
g3
Ntp136
Rp137
(dp138
g16
I72
sbs(I1
I15
tp139
g1
(g12
g3
Ntp140
Rp141
(dp142
g16
I47
sbs(I4
I12
tp143
g14
s(I28
I1
tp144
g1
(g12
g3
Ntp145
Rp146
(dp147
g16
I67
sbs(I2
I12
tp148
g14
s(I5
I1
tp149
g1
(g12
g3
Ntp150
Rp151
(dp152
g16
I48
sbs(I29
I4
tp153
g14
s(I3
I17
tp154
g1
(g12
g3
Ntp155
Rp156
(dp157
g16
I76
sbs(I16
I7
tp158
g14
s(I6
I14
tp159
g14
s(I19
I18
tp160
g14
s(I17
I6
tp161
g14
s(I7
I15
tp162
g1
(g12
g3
Ntp163
Rp164
(dp165
g16
I76
sbs(I31
I18
tp166
g1
(g12
g3
Ntp167
Rp168
(dp169
g16
I68
sbs(I20
I21
tp170
g14
s(I18
I5
tp171
g14
s(I21
I8
tp172
g1
(g12
g3
Ntp173
Rp174
(dp175
g16
I70
sbs(I22
I7
tp176
g1
(g12
g3
Ntp177
Rp178
(dp179
g16
I70
sbs(I23
I6
tp180
g1
(g12
g3
Ntp181
Rp182
(dp183
g16
I70
sbs(I10
I9
tp184
g14
s(I11
I4
tp185
g14
s(I9
I20
tp186
g14
s(I14
I19
tp187
g14
s(I12
I7
tp188
g14
s(I10
I19
tp189
g14
s(I15
I10
tp190
g14
s(I13
I6
tp191
g14
s(I0
I5
tp192
g1
(g12
g3
Ntp193
Rp194
(dp195
g16
I46
sbs(I24
I2
tp196
g14
s(I1
I0
tp197
g1
(g12
g3
Ntp198
Rp199
(dp200
g16
I55
sbs(I25
I3
tp201
g14
s(I4
I11
tp202
g14
s(I2
I7
tp203
g14
s(I5
I10
tp204
g14
s(I3
I22
tp205
g14
s(I6
I1
tp206
g1
(g12
g3
Ntp207
Rp208
(dp209
g16
I48
sbs(I30
I2
tp210
g14
s(I4
I17
tp211
g1
(g12
g3
Ntp212
Rp213
(dp214
g16
I70
sbs(I7
I4
tp215
g14
s(I5
I20
tp216
g1
(g12
g3
Ntp217
Rp218
(dp219
g16
I64
sbs(I16
I20
tp220
g14
s(I21
I17
tp221
g14
s(I19
I1
tp222
g1
(g12
g3
Ntp223
Rp224
(dp225
g16
I48
sbs(I17
I17
tp226
g14
s(I18
I22
tp227
g14
s(I8
I0
tp228
g1
(g12
g3
Ntp229
Rp230
(dp231
g16
I55
sbs(I15
I19
tp232
g14
s(I11
I19
tp233
g14
s(I24
I9
tp234
g14
s(I12
I20
tp235
g14
s(I27
I20
tp236
g14
s(I25
I4
tp237
g1
(g12
g3
Ntp238
Rp239
(dp240
g16
I76
sbs(I28
I23
tp241
g1
(g12
g3
Ntp242
Rp243
(dp244
g16
I14
sbs(I26
I3
tp245
g1
(g12
g3
Ntp246
Rp247
(dp248
g16
I76
sbs(I29
I22
tp249
g14
s(I27
I10
tp250
g14
s(I30
I5
tp251
g14
s(I28
I13
tp252
g14
s(I31
I0
tp253
g1
(g12
g3
Ntp254
Rp255
(dp256
g16
I19
sbs(I16
I11
tp257
g1
(g12
g3
Ntp258
Rp259
(dp260
g16
I67
sbs(I6
I18
tp261
g1
(g12
g3
Ntp262
Rp263
(dp264
g16
I71
sbs(I19
I6
tp265
g14
s(I17
I10
tp266
g1
(g12
g3
Ntp267
Rp268
(dp269
g16
I69
sbs(I22
I17
tp270
g14
s(I20
I1
tp271
g1
(g12
g3
Ntp272
Rp273
(dp274
g16
I48
sbs(I18
I17
tp275
g14
s(I23
I20
tp276
g14
s(I21
I4
tp277
g14
s(I8
I7
tp278
g14
s(I22
I11
tp279
g14
s(I9
I6
tp280
g14
s(I10
I5
tp281
g14
s(I11
I8
tp282
g14
s(I0
I19
tp283
g1
(g12
g3
Ntp284
Rp285
(dp286
g16
I46
sbs(I24
I16
tp287
g14
s(I14
I7
tp288
g14
s(I12
I19
tp289
g14
s(I1
I18
tp290
g1
(g12
g3
Ntp291
Rp292
(dp293
g16
I47
sbs(I25
I13
tp294
g14
s(I15
I6
tp295
g14
s(I13
I18
tp296
g14
s(I26
I10
tp297
g14
s(I0
I9
tp298
g1
(g12
g3
Ntp299
Rp300
(dp301
g16
I46
sbs(I3
I4
tp302
g14
s(I27
I3
tp303
g1
(g12
g3
Ntp304
Rp305
(dp306
g16
I70
sbs(I30
I12
tp307
g14
s(I4
I7
tp308
g14
s(I28
I4
tp309
g1
(g12
g3
Ntp310
Rp311
(dp312
g16
I66
sbs(I31
I9
tp313
g1
(g12
g3
Ntp314
Rp315
(dp316
g16
I19
sbs(I5
I6
tp317
g14
s(I29
I9
tp318
g14
s(I16
I2
tp319
g14
s(I6
I21
tp320
g14
s(I30
I22
tp321
g14
s(I19
I15
tp322
g14
s(I17
I3
tp323
g14
s(I7
I16
tp324
g1
(g12
g3
Ntp325
Rp326
(dp327
g16
I70
sbs(I31
I23
tp328
g1
(g12
g3
Ntp329
Rp330
(dp331
g16
I70
sbs(I20
I8
tp332
g1
(g12
g3
Ntp333
Rp334
(dp335
g16
I69
sbs(I18
I8
tp336
g14
s(I21
I13
tp337
g14
s(I8
I14
tp338
g14
s(I22
I2
tp339
g14
s(I9
I15
tp340
g1
(g12
g3
Ntp341
Rp342
(dp343
g16
I70
sbs(I23
I11
tp344
g14
s(I10
I12
tp345
g14
s(I8
I20
tp346
g14
s(I11
I1
tp347
g1
(g12
g3
Ntp348
Rp349
(dp350
g16
I48
sbs(I9
I17
tp351
g1
(g12
g3
Ntp352
Rp353
(dp354
g16
I64
sbs(I24
I23
tp355
g1
(g12
g3
Ntp356
Rp357
(dp358
g16
I14
sbs(I14
I14
tp359
g1
(g12
g3
Ntp360
Rp361
(dp362
g16
I71
sbs(I12
I10
tp363
g14
s(I10
I22
tp364
g14
s(I25
I22
tp365
g14
s(I15
I15
tp366
g1
(g12
g3
Ntp367
Rp368
(dp369
g16
I72
sbs(I13
I11
tp370
g14
s(I2
I16
tp371
g14
s(I26
I21
tp372
g14
s(I0
I0
tp373
g1
(g12
g3
Ntp374
Rp375
(dp376
g16
I46
sbs(I3
I13
tp377
g14
s(I1
I13
tp378
g1
(g12
g3
Ntp379
Rp380
(dp381
g16
I47
sbs(I4
I14
tp382
g14
s(I28
I3
tp383
g1
(g12
g3
Ntp384
Rp385
(dp386
g16
I63
sbs(I2
I10
tp387
g14
s(I5
I15
tp388
g14
s(I29
I2
tp389
g1
(g12
g3
Ntp390
Rp391
(dp392
g16
I66
sbs(I3
I19
tp393
g1
(g12
g3
Ntp394
Rp395
(dp396
g16
I73
sbs(I6
I12
tp397
g14
s(I4
I20
tp398
g1
(g12
g3
Ntp399
Rp400
(dp401
g16
I73
sbs(I19
I20
tp402
g14
s(I17
I4
tp403
g14
s(I7
I9
tp404
g14
s(I20
I23
tp405
g1
(g12
g3
Ntp406
Rp407
(dp408
g16
I14
sbs(I18
I3
tp409
g14
s(I21
I22
tp410
g14
s(I22
I5
tp411
g14
s(I23
I0
tp412
g1
(g12
g3
Ntp413
Rp414
(dp415
g16
I55
sbs(I11
I6
tp416
g14
s(I14
I17
tp417
g14
s(I12
I1
tp418
g1
(g12
g3
Ntp419
Rp420
(dp421
g16
I48
sbs(I10
I17
tp422
g1
(g12
g3
Ntp423
Rp424
(dp425
g16
I72
sbs(I15
I20
tp426
g14
s(I13
I4
tp427
g14
s(I0
I7
tp428
g1
(g12
g3
Ntp429
Rp430
(dp431
g16
I46
sbs(I24
I4
tp432
g14
s(I27
I17
tp433
g14
s(I1
I6
tp434
g1
(g12
g3
Ntp435
Rp436
(dp437
g16
I47
sbs(I25
I1
tp438
g1
(g12
g3
Ntp439
Rp440
(dp441
g16
I48
sbs(I2
I5
tp442
g14
s(I26
I6
tp443
g1
(g12
g3
Ntp444
Rp445
(dp446
g16
I63
sbs(I5
I8
tp447
g14
s(I6
I7
tp448
g14
s(I30
I0
tp449
g1
(g12
g3
Ntp450
Rp451
(dp452
g16
I57
sbs(I4
I19
tp453
g1
(g12
g3
Ntp454
Rp455
(dp456
g16
I65
sbs(I7
I6
tp457
g14
s(I31
I5
tp458
g1
(g12
g3
Ntp459
Rp460
(dp461
g16
I19
sbs(I5
I18
tp462
g1
(g12
g3
Ntp463
Rp464
(dp465
g16
I71
sbs(I16
I22
tp466
g14
s(I19
I3
tp467
g14
s(I17
I23
tp468
g1
(g12
g3
Ntp469
Rp470
(dp471
g16
I14
sbs(I20
I4
tp472
g14
s(I18
I20
tp473
g14
s(I8
I2
tp474
g14
s(I9
I3
tp475
g14
s(I11
I21
tp476
g14
s(I24
I11
tp477
g14
s(I14
I2
tp478
g14
s(I12
I22
tp479
g14
s(I27
I22
tp480
g14
s(I25
I10
tp481
g14
s(I13
I23
tp482
g1
(g12
g3
Ntp483
Rp484
(dp485
g16
I14
sbs(I28
I17
tp486
g14
s(I26
I1
tp487
g1
(g12
g3
Ntp488
Rp489
(dp490
g16
I48
sbs(I29
I20
tp491
g14
s(I3
I1
tp492
g1
(g12
g3
Ntp493
Rp494
(dp495
g16
I48
sbs(I27
I12
tp496
g14
s(I30
I11
tp497
g14
s(I28
I15
tp498
g14
s(I31
I2
tp499
g1
(g12
g3
Ntp500
Rp501
(dp502
g16
I69
sbs(I29
I14
tp503
g14
s(I16
I13
tp504
g1
(g12
g3
Ntp505
Rp506
(dp507
g16
I71
sbs(I6
I16
tp508
g1
(g12
g3
Ntp509
Rp510
(dp511
g16
I69
sbs(I19
I8
tp512
g1
(g12
g3
Ntp513
Rp514
(dp515
g16
I76
sbs(I17
I8
tp516
g14
s(I7
I21
tp517
g14
s(I22
I23
tp518
g1
(g12
g3
Ntp519
Rp520
(dp521
g16
I14
sbs(I20
I3
tp522
g14
s(I18
I15
tp523
g14
s(I23
I22
tp524
g14
s(I21
I2
tp525
g14
s(I8
I9
tp526
g14
s(I22
I9
tp527
g1
(g12
g3
Ntp528
Rp529
(dp530
g16
I63
sbs(I9
I4
tp531
g14
s(I23
I12
tp532
g14
s(I10
I3
tp533
g14
s(I11
I10
tp534
g14
s(I0
I21
tp535
g1
(g12
g3
Ntp536
Rp537
(dp538
g16
I46
sbs(I24
I18
tp539
g14
s(I14
I5
tp540
g14
s(I12
I13
tp541
g1
(g12
g3
Ntp542
Rp543
(dp544
g16
I76
sbs(I1
I16
tp545
g1
(g12
g3
Ntp546
Rp547
(dp548
g16
I47
sbs(I25
I19
tp549
g14
s(I15
I0
tp550
g1
(g12
g3
Ntp551
Rp552
(dp553
g16
I55
sbs(I13
I16
tp554
g1
(g12
g3
Ntp555
Rp556
(dp557
g16
I72
sbs(I2
I23
tp558
g1
(g12
g3
Ntp559
Rp560
(dp561
g16
I14
sbs(I26
I8
tp562
g14
s(I0
I11
tp563
g1
(g12
g3
Ntp564
Rp565
(dp566
g16
I46
sbs(I3
I6
tp567
g14
s(I27
I5
tp568
g1
(g12
g3
Ntp569
Rp570
(dp571
g16
I63
sbs(I1
I10
tp572
g1
(g12
g3
Ntp573
Rp574
(dp575
g16
I47
sbs(I4
I1
tp576
g1
(g12
g3
Ntp577
Rp578
(dp579
g16
I48
sbs(I28
I6
tp580
g14
s(I31
I11
tp581
g1
(g12
g3
Ntp582
Rp583
(dp584
g16
I63
sbs(I5
I4
tp585
g14
s(I29
I7
tp586
g14
s(I16
I4
tp587
g14
s(I6
I11
tp588
g14
s(I30
I20
tp589
g14
s(I19
I17
tp590
g14
s(I17
I1
tp591
g1
(g12
g3
Ntp592
Rp593
(dp594
g16
I48
sbs(I7
I18
tp595
g1
(g12
g3
Ntp596
Rp597
(dp598
g16
I63
sbs(I31
I17
tp599
g1
(g12
g3
Ntp600
Rp601
(dp602
g16
I72
sbs(I20
I10
tp603
g1
(g12
g3
Ntp604
Rp605
(dp606
g16
I63
sbs(I18
I6
tp607
g14
s(I21
I11
tp608
g14
s(I22
I0
tp609
g1
(g12
g3
Ntp610
Rp611
(dp612
g16
I55
sbs(I9
I13
tp613
g14
s(I23
I5
tp614
g1
(g12
g3
Ntp615
Rp616
(dp617
g16
I76
sbs(I10
I10
tp618
g14
s(I8
I22
tp619
g14
s(I11
I3
tp620
g14
s(I9
I23
tp621
g1
(g12
g3
Ntp622
Rp623
(dp624
g16
I14
sbs(I14
I12
tp625
g1
(g12
g3
Ntp626
Rp627
(dp628
g16
I76
sbs(I12
I4
tp629
g14
s(I10
I20
tp630
g14
s(I25
I20
tp631
g14
s(I15
I9
tp632
g14
s(I13
I9
tp633
g14
s(I26
I19
tp634
g14
s(I0
I2
tp635
g1
(g12
g3
Ntp636
Rp637
(dp638
g16
I46
sbs(I3
I15
tp639
g14
s(I1
I3
tp640
g1
(g12
g3
Ntp641
Rp642
(dp643
g16
I47
sbs(I4
I8
tp644
g14
s(I2
I8
tp645
g14
s(I5
I13
tp646
g14
s(I29
I0
tp647
g1
(g12
g3
Ntp648
Rp649
(dp650
g16
I66
sbs(I3
I21
tp651
g14
s(I6
I2
tp652
g14
s(I4
I22
tp653
g14
s(I19
I22
tp654
g14
s(I7
I11
tp655
g14
s(I5
I23
tp656
g1
(g12
g3
Ntp657
Rp658
(dp659
g16
I14
sbs(I20
I17
tp660
g14
s(I18
I1
tp661
g1
(g12
g3
Ntp662
Rp663
(dp664
g16
I48
sbs(I16
I17
tp665
g14
s(I21
I20
tp666
g14
s(I23
I2
tp667
g14
s(I14
I23
tp668
g1
(g12
g3
Ntp669
Rp670
(dp671
g16
I14
sbs(I12
I3
tp672
g14
s(I15
I22
tp673
g14
s(I13
I2
tp674
g14
s(I24
I6
tp675
g1
(g12
g3
Ntp676
Rp677
(dp678
g16
I71
sbs(I27
I19
tp679
g14
s(I1
I4
tp680
g1
(g12
g3
Ntp681
Rp682
(dp683
g16
I47
sbs(I25
I7
tp684
g1
(g12
g3
Ntp685
Rp686
(dp687
g16
I64
sbs(I28
I20
tp688
g14
s(I2
I3
tp689
g14
s(I26
I4
tp690
g1
(g12
g3
Ntp691
Rp692
(dp693
g16
I70
sbs(I27
I9
tp694
g14
s(I6
I5
tp695
g14
s(I30
I6
tp696
g14
s(I7
I0
tp697
g1
(g12
g3
Ntp698
Rp699
(dp700
g16
I55
sbs(I31
I7
tp701
g1
(g12
g3
Ntp702
Rp703
(dp704
g16
I69
sbs(I5
I16
tp705
g1
(g12
g3
Ntp706
Rp707
(dp708
g16
I69
sbs(I16
I8
tp709
g14
s(I19
I5
tp710
g14
s(I17
I21
tp711
g14
s(I22
I18
tp712
g14
s(I20
I6
tp713
g14
s(I18
I18
tp714
g14
s(I21
I7
tp715
g1
(g12
g3
Ntp716
Rp717
(dp718
g16
I76
sbs(I8
I4
tp719
g14
s(I9
I1
tp720
g1
(g12
g3
Ntp721
Rp722
(dp723
g16
I48
sbs(I10
I6
tp724
g14
s(I11
I23
tp725
g1
(g12
g3
Ntp726
Rp727
(dp728
g16
I14
sbs(I0
I16
tp729
g1
(g12
g3
Ntp730
Rp731
(dp732
g16
I46
sbs(I24
I13
tp733
g14
s(I14
I0
tp734
g1
(g12
g3
Ntp735
Rp736
(dp737
g16
I55
sbs(I12
I16
tp738
g1
(g12
g3
Ntp739
Rp740
(dp741
g16
I64
sbs(I25
I8
tp742
g14
s(I15
I5
tp743
g14
s(I13
I21
tp744
g14
s(I28
I19
tp745
g14
s(I26
I15
tp746
g14
s(I29
I18
tp747
g14
s(I3
I3
tp748
g14
s(I27
I14
tp749
g14
s(I30
I9
tp750
g14
s(I4
I4
tp751
g14
s(I28
I9
tp752
g14
s(I31
I12
tp753
g1
(g12
g3
Ntp754
Rp755
(dp756
g16
I68
sbs(I29
I12
tp757
g14
s(I16
I15
tp758
g14
s(I6
I22
tp759
g14
s(I30
I19
tp760
g14
s(I19
I10
tp761
g1
(g12
g3
Ntp762
Rp763
(dp764
g16
I71
sbs(I17
I14
tp765
g1
(g12
g3
Ntp766
Rp767
(dp768
g16
I72
sbs(I7
I23
tp769
g1
(g12
g3
Ntp770
Rp771
(dp772
g16
I14
sbs(I22
I21
tp773
g14
s(I20
I13
tp774
g14
s(I18
I13
tp775
g14
s(I23
I16
tp776
g14
s(I21
I0
tp777
g1
(g12
g3
Ntp778
Rp779
(dp780
g16
I55
sbs(I8
I11
tp781
g14
s(I22
I15
tp782
g14
s(I9
I10
tp783
g14
s(I23
I14
tp784
g14
s(I10
I1
tp785
g1
(g12
g3
Ntp786
Rp787
(dp788
g16
I48
sbs(I8
I17
tp789
g1
(g12
g3
Ntp790
Rp791
(dp792
g16
I63
sbs(I11
I12
tp793
g14
s(I0
I23
tp794
g1
(g12
g3
Ntp795
Rp796
(dp797
g16
I14
sbs(I24
I20
tp798
g14
s(I14
I11
tp799
g14
s(I12
I15
tp800
g1
(g12
g3
Ntp801
Rp802
(dp803
g16
I71
sbs(I1
I22
tp804
g1
(g12
g3
Ntp805
Rp806
(dp807
g16
I47
sbs(I25
I17
tp808
g14
s(I15
I2
tp809
g14
s(I13
I14
tp810
g1
(g12
g3
Ntp811
Rp812
(dp813
g16
I71
sbs(I2
I21
tp814
g14
s(I26
I22
tp815
g14
s(I0
I13
tp816
g1
(g12
g3
Ntp817
Rp818
(dp819
g16
I46
sbs(I3
I8
tp820
g14
s(I27
I7
tp821
g14
s(I1
I8
tp822
g1
(g12
g3
Ntp823
Rp824
(dp825
g16
I47
sbs(I4
I3
tp826
g14
s(I28
I0
tp827
g1
(g12
g3
Ntp828
Rp829
(dp830
g16
I67
sbs(I2
I15
tp831
g14
s(I5
I2
tp832
g14
s(I29
I5
tp833
g14
s(I16
I6
tp834
g14
s(I6
I9
tp835
g14
s(I19
I19
tp836
g14
s(I17
I7
tp837
g14
s(I7
I12
tp838
g14
s(I31
I19
tp839
g1
(g12
g3
Ntp840
Rp841
(dp842
g16
I63
sbs(I20
I20
tp843
g14
s(I18
I4
tp844
g14
s(I21
I9
tp845
g1
(g12
g3
Ntp846
Rp847
(dp848
g16
I71
sbs(I22
I6
tp849
g1
(g12
g3
Ntp850
Rp851
(dp852
g16
I76
sbs(I23
I7
tp853
g1
(g12
g3
Ntp854
Rp855
(dp856
g16
I71
sbs(I10
I8
tp857
g14
s(I11
I5
tp858
g14
s(I9
I21
tp859
g14
s(I14
I18
tp860
g14
s(I12
I6
tp861
g14
s(I10
I18
tp862
g14
s(I15
I11
tp863
g14
s(I13
I7
tp864
g14
s(I26
I17
tp865
g14
s(I0
I4
tp866
g1
(g12
g3
Ntp867
Rp868
(dp869
g16
I46
sbs(I24
I1
tp870
g1
(g12
g3
Ntp871
Rp872
(dp873
g16
I48
sbs(I1
I1
tp874
g1
(g12
g3
Ntp875
Rp876
(dp877
g16
I42
sbs(I4
I10
tp878
g14
s(I2
I6
tp879
g14
s(I5
I11
tp880
g14
s(I3
I23
tp881
g1
(g12
g3
Ntp882
Rp883
(dp884
g16
I14
sbs(I6
I0
tp885
g1
(g12
g3
Ntp886
Rp887
(dp888
g16
I55
sbs(I4
I16
tp889
g1
(g12
g3
Ntp890
Rp891
(dp892
g16
I76
sbs(I7
I5
tp893
g14
s(I5
I21
tp894
g14
s(I20
I19
tp895
g14
s(I16
I19
tp896
g14
s(I21
I18
tp897
g14
s(I17
I18
tp898
g14
s(I14
I21
tp899
g14
s(I15
I16
tp900
g14
s(I13
I0
tp901
g1
(g12
g3
Ntp902
Rp903
(dp904
g16
I55
sbs(I11
I16
tp905
g1
(g12
g3
Ntp906
Rp907
(dp908
g16
I64
sbs(I24
I8
tp909
g1
(g12
g3
Ntp910
Rp911
(dp912
g16
I72
sbs(I27
I21
tp913
g14
s(I25
I5
tp914
g1
(g12
g3
Ntp915
Rp916
(dp917
g16
I70
sbs(I28
I22
tp918
g14
s(I2
I1
tp919
g1
(g12
g3
Ntp920
Rp921
(dp922
g16
I48
sbs(I26
I2
tp923
g14
s(I29
I23
tp924
g1
(g12
g3
Ntp925
Rp926
(dp927
g16
I14
sbs(I27
I11
tp928
g14
s(I30
I4
tp929
g14
s(I28
I12
tp930
g14
s(I7
I2
tp931
g14
s(I31
I1
tp932
g1
(g12
g3
Ntp933
Rp934
(dp935
g16
I19
sbs(I16
I10
tp936
g1
(g12
g3
Ntp937
Rp938
(dp939
g16
I76
sbs(I19
I7
tp940
g14
s(I17
I11
tp941
g1
(g12
g3
Ntp942
Rp943
(dp944
g16
I71
sbs(I22
I16
tp945
g14
s(I20
I0
tp946
g1
(g12
g3
Ntp947
Rp948
(dp949
g16
I55
sbs(I18
I16
tp950
g14
s(I23
I21
tp951
g14
s(I21
I5
tp952
g14
s(I8
I6
tp953
g14
s(I22
I10
tp954
g1
(g12
g3
Ntp955
Rp956
(dp957
g16
I72
sbs(I9
I7
tp958
g14
s(I10
I4
tp959
g14
s(I11
I9
tp960
g14
s(I0
I18
tp961
g1
(g12
g3
Ntp962
Rp963
(dp964
g16
I46
sbs(I24
I15
tp965
g14
s(I14
I6
tp966
g14
s(I12
I18
tp967
g14
s(I1
I19
tp968
g1
(g12
g3
Ntp969
Rp970
(dp971
g16
I47
sbs(I25
I14
tp972
g14
s(I15
I7
tp973
g14
s(I13
I19
tp974
g14
s(I26
I13
tp975
g14
s(I0
I8
tp976
g1
(g12
g3
Ntp977
Rp978
(dp979
g16
I46
sbs(I29
I16
tp980
g14
s(I3
I5
tp981
g14
s(I27
I0
tp982
g1
(g12
g3
Ntp983
Rp984
(dp985
g16
I47
sbs(I30
I15
tp986
g14
s(I4
I6
tp987
g14
s(I28
I11
tp988
g14
s(I31
I14
tp989
g1
(g12
g3
Ntp990
Rp991
(dp992
g16
I66
sbs(I5
I7
tp993
g14
s(I29
I10
tp994
g14
s(I16
I1
tp995
g1
(g12
g3
Ntp996
Rp997
(dp998
g16
I48
sbs(I6
I20
tp999
g1
(g12
g3
Ntp1000
Rp1001
(dp1002
g16
I72
sbs(I30
I17
tp1003
g14
s(I19
I12
tp1004
g1
(g12
g3
Ntp1005
Rp1006
(dp1007
g16
I72
sbs(I17
I12
tp1008
g1
(g12
g3
Ntp1009
Rp1010
(dp1011
g16
I63
sbs(I7
I17
tp1012
g1
(g12
g3
Ntp1013
Rp1014
(dp1015
g16
I71
sbs(I31
I20
tp1016
g1
(g12
g3
Ntp1017
Rp1018
(dp1019
g16
I72
sbs(I20
I15
tp1020
g14
s(I18
I11
tp1021
g1
(g12
g3
Ntp1022
Rp1023
(dp1024
g16
I71
sbs(I23
I18
tp1025
g14
s(I21
I14
tp1026
g14
s(I8
I13
tp1027
g14
s(I22
I13
tp1028
g14
s(I9
I8
tp1029
g14
s(I23
I8
tp1030
g1
(g12
g3
Ntp1031
Rp1032
(dp1033
g16
I63
sbs(I10
I15
tp1034
g1
(g12
g3
Ntp1035
Rp1036
(dp1037
g16
I71
sbs(I8
I19
tp1038
g14
s(I11
I14
tp1039
g1
(g12
g3
Ntp1040
Rp1041
(dp1042
g16
I69
sbs(I9
I18
tp1043
g14
s(I24
I22
tp1044
g14
s(I14
I9
tp1045
g14
s(I12
I9
tp1046
g14
s(I1
I20
tp1047
g1
(g12
g3
Ntp1048
Rp1049
(dp1050
g16
I47
sbs(I25
I23
tp1051
g1
(g12
g3
Ntp1052
Rp1053
(dp1054
g16
I14
sbs(I15
I12
tp1055
g1
(g12
g3
Ntp1056
Rp1057
(dp1058
g16
I69
sbs(I13
I12
tp1059
g14
s(I2
I19
tp1060
g14
s(I26
I20
tp1061
g14
s(I0
I15
tp1062
g1
(g12
g3
Ntp1063
Rp1064
(dp1065
g16
I46
sbs(I3
I10
tp1066
g14
s(I1
I14
tp1067
g1
(g12
g3
Ntp1068
Rp1069
(dp1070
g16
I47
sbs(I4
I13
tp1071
g14
s(I28
I2
tp1072
g1
(g12
g3
Ntp1073
Rp1074
(dp1075
g16
I70
sbs(I2
I13
tp1076
g14
s(I5
I0
tp1077
g1
(g12
g3
Ntp1078
Rp1079
(dp1080
g16
I55
sbs(I29
I3
tp1081
g1
(g12
g3
Ntp1082
Rp1083
(dp1084
g16
I72
sbs(I3
I16
tp1085
g14
s(I6
I15
tp1086
g14
s(I19
I21
tp1087
g14
s(I17
I5
tp1088
g14
s(I7
I14
tp1089
g14
s(I20
I22
tp1090
g14
s(I18
I2
tp1091
g14
s(I21
I23
tp1092
g1
(g12
g3
Ntp1093
Rp1094
(dp1095
g16
I14
sbs(I22
I4
tp1096
g14
s(I23
I1
tp1097
g1
(g12
g3
Ntp1098
Rp1099
(dp1100
g16
I48
sbs(I11
I7
tp1101
g14
s(I14
I16
tp1102
g14
s(I12
I0
tp1103
g1
(g12
g3
Ntp1104
Rp1105
(dp1106
g16
I55
sbs(I10
I16
tp1107
g1
(g12
g3
Ntp1108
Rp1109
(dp1110
g16
I63
sbs(I15
I21
tp1111
g14
s(I13
I5
tp1112
g14
s(I0
I6
tp1113
g1
(g12
g3
Ntp1114
Rp1115
(dp1116
g16
I46
sbs(I24
I3
tp1117
g14
s(I1
I7
tp1118
g1
(g12
g3
Ntp1119
Rp1120
(dp1121
g16
I47
sbs(I25
I2
tp1122
g14
s(I2
I4
tp1123
g14
s(I5
I9
tp1124
g14
s(I6
I6
tp1125
g14
s(I30
I3
tp1126
g14
s(I4
I18
tp1127
g1
(g12
g3
Ntp1128
Rp1129
(dp1130
g16
I71
sbs(I7
I7
tp1131
g14
s(I5
I19
tp1132
g1
(g12
g3
Ntp1133
Rp1134
(dp1135
g16
I71
sbs(I16
I21
tp1136
g14
s(I21
I16
tp1137
g14
s(I19
I0
tp1138
g1
(g12
g3
Ntp1139
Rp1140
(dp1141
g16
I55
sbs(I17
I16
tp1142
g14
s(I18
I23
tp1143
g1
(g12
g3
Ntp1144
Rp1145
(dp1146
g16
I14
sbs(I8
I1
tp1147
g1
(g12
g3
Ntp1148
Rp1149
(dp1150
g16
I48
sbs(I15
I18
tp1151
g14
s(I11
I18
tp1152
g14
s(I24
I10
tp1153
g14
s(I12
I21
tp1154
g14
s(I27
I23
tp1155
g1
(g12
g3
Ntp1156
Rp1157
(dp1158
g16
I14
sbs(I25
I11
tp1159
g14
s(I28
I16
tp1160
g14
s(I26
I0
tp1161
g1
(g12
g3
Ntp1162
Rp1163
(dp1164
g16
I56
sbs(I29
I21
tp1165
g14
s(I27
I13
tp1166
g14
s(I30
I10
tp1167
g14
s(I28
I14
tp1168
g14
s(I31
I3
tp1169
g1
(g12
g3
Ntp1170
Rp1171
(dp1172
g16
I19
sbs(I29
I15
tp1173
g14
s(I16
I12
tp1174
g1
(g12
g3
Ntp1175
Rp1176
(dp1177
g16
I70
sbs(I6
I19
tp1178
g1
(g12
g3
Ntp1179
Rp1180
(dp1181
g16
I63
sbs(I19
I9
tp1182
g1
(g12
g3
Ntp1183
Rp1184
(dp1185
g16
I70
sbs(I17
I9
tp1186
g14
s(I22
I22
tp1187
g14
s(I20
I2
tp1188
g14
s(I18
I14
tp1189
g14
s(I23
I23
tp1190
g1
(g12
g3
Ntp1191
Rp1192
(dp1193
g16
I14
sbs(I21
I3
tp1194
g14
s(I8
I8
tp1195
g14
s(I22
I8
tp1196
g1
(g12
g3
Ntp1197
Rp1198
(dp1199
g16
I71
sbs(I9
I5
tp1200
g14
s(I23
I13
tp1201
g14
s(I10
I2
tp1202
g14
s(I11
I11
tp1203
g14
s(I0
I20
tp1204
g1
(g12
g3
Ntp1205
Rp1206
(dp1207
g16
I46
sbs(I24
I17
tp1208
g14
s(I14
I4
tp1209
g14
s(I12
I12
tp1210
g14
s(I1
I17
tp1211
g1
(g12
g3
Ntp1212
Rp1213
(dp1214
g16
I47
sbs(I25
I12
tp1215
g14
s(I15
I1
tp1216
g1
(g12
g3
Ntp1217
Rp1218
(dp1219
g16
I48
sbs(I13
I17
tp1220
g14
s(I2
I22
tp1221
g14
s(I26
I11
tp1222
g14
s(I0
I10
tp1223
g1
(g12
g3
Ntp1224
Rp1225
(dp1226
g16
I46
sbs(I3
I7
tp1227
g14
s(I27
I2
tp1228
g1
(g12
g3
Ntp1229
Rp1230
(dp1231
g16
I76
sbs(I1
I11
tp1232
g1
(g12
g3
Ntp1233
Rp1234
(dp1235
g16
I47
sbs(I30
I13
tp1236
g14
s(I4
I0
tp1237
g1
(g12
g3
Ntp1238
Rp1239
(dp1240
g16
I55
sbs(I28
I5
tp1241
g1
(g12
g3
Ntp1242
Rp1243
(dp1244
g16
I72
sbs(I31
I8
tp1245
g1
(g12
g3
Ntp1246
Rp1247
(dp1248
g16
I19
sbs(I5
I5
tp1249
g14
s(I29
I8
tp1250
g14
s(I16
I3
tp1251
g14
s(I6
I10
tp1252
g14
s(I30
I23
tp1253
g1
(g12
g3
Ntp1254
Rp1255
(dp1256
g16
I14
sbs(I19
I14
tp1257
g14
s(I17
I2
tp1258
g14
s(I7
I19
tp1259
g1
(g12
g3
Ntp1260
Rp1261
(dp1262
g16
I72
sbs(I31
I22
tp1263
g1
(g12
g3
Ntp1264
Rp1265
(dp1266
g16
I71
sbs(I20
I9
tp1267
g1
(g12
g3
Ntp1268
Rp1269
(dp1270
g16
I71
sbs(I18
I9
tp1271
g1
(g12
g3
Ntp1272
Rp1273
(dp1274
g16
I76
sbs(I21
I12
tp1275
g14
s(I8
I15
tp1276
g1
(g12
g3
Ntp1277
Rp1278
(dp1279
g16
I69
sbs(I22
I3
tp1280
g14
s(I9
I14
tp1281
g1
(g12
g3
Ntp1282
Rp1283
(dp1284
g16
I76
sbs(I23
I10
tp1285
g14
s(I10
I13
tp1286
g14
s(I8
I21
tp1287
g14
s(I11
I0
tp1288
g1
(g12
g3
Ntp1289
Rp1290
(dp1291
g16
I55
sbs(I9
I16
tp1292
g1
(g12
g3
Ntp1293
Rp1294
(dp1295
g16
I71
sbs(I14
I15
tp1296
g1
(g12
g3
Ntp1297
Rp1298
(dp1299
g16
I64
sbs(I12
I11
tp1300
g14
s(I10
I23
tp1301
g1
(g12
g3
Ntp1302
Rp1303
(dp1304
g16
I14
sbs(I25
I21
tp1305
g14
s(I15
I14
tp1306
g1
(g12
g3
Ntp1307
Rp1308
(dp1309
g16
I63
sbs(I13
I10
tp1310
g14
s(I2
I17
tp1311
g14
s(I26
I18
tp1312
g14
s(I0
I1
tp1313
g1
(g12
g3
Ntp1314
Rp1315
(dp1316
g16
I46
sbs(I3
I12
tp1317
g14
s(I1
I12
tp1318
g1
(g12
g3
Ntp1319
Rp1320
(dp1321
g16
I47
sbs(I4
I15
tp1322
g14
s(I2
I11
tp1323
g14
s(I5
I14
tp1324
g14
s(I29
I1
tp1325
g1
(g12
g3
Ntp1326
Rp1327
(dp1328
g16
I66
sbs(I3
I18
tp1329
g1
(g12
g3
Ntp1330
Rp1331
(dp1332
g16
I67
sbs(I6
I13
tp1333
g14
s(I4
I21
tp1334
g14
s(I19
I23
tp1335
g1
(g12
g3
Ntp1336
Rp1337
(dp1338
g16
I14
sbs(I7
I8
tp1339
g14
s(I20
I16
tp1340
g14
s(I18
I0
tp1341
g1
(g12
g3
Ntp1342
Rp1343
(dp1344
g16
I55
sbs(I16
I16
tp1345
g14
s(I21
I21
tp1346
g14
s(I23
I3
tp1347
g14
s(I14
I22
tp1348
g14
s(I12
I2
tp1349
g14
s(I15
I23
tp1350
g1
(g12
g3
Ntp1351
Rp1352
(dp1353
g16
I14
sbs(I13
I3
tp1354
g14
s(I24
I5
tp1355
g1
(g12
g3
Ntp1356
Rp1357
(dp1358
g16
I69
sbs(I27
I16
tp1359
g14
s(I1
I5
tp1360
g1
(g12
g3
Ntp1361
Rp1362
(dp1363
g16
I47
sbs(I25
I0
tp1364
g1
(g12
g3
Ntp1365
Rp1366
(dp1367
g16
I55
sbs(I2
I2
tp1368
g14
s(I26
I7
tp1369
g1
(g12
g3
Ntp1370
Rp1371
(dp1372
g16
I72
sbs(I6
I4
tp1373
g14
s(I30
I1
tp1374
g1
(g12
g3
Ntp1375
Rp1376
(dp1377
g16
I62
sbs(I7
I1
tp1378
g1
(g12
g3
Ntp1379
Rp1380
(dp1381
g16
I48
sbs(I31
I4
tp1382
g1
(g12
g3
Ntp1383
Rp1384
(dp1385
g16
I19
sbs(I5
I17
tp1386
g1
(g12
g3
Ntp1387
Rp1388
(dp1389
g16
I71
sbs(I16
I23
tp1390
g1
(g12
g3
Ntp1391
Rp1392
(dp1393
g16
I14
sbs(I19
I2
tp1394
g14
s(I17
I22
tp1395
g14
s(I20
I5
tp1396
g14
s(I18
I21
tp1397
g14
s(I8
I3
tp1398
g14
s(I9
I2
tp1399
g14
s(I11
I20
tp1400
g14
s(I24
I12
tp1401
g14
s(I14
I3
tp1402
g14
s(I12
I23
tp1403
g1
(g12
g3
Ntp1404
Rp1405
(dp1406
g16
I14
sbs(I25
I9
tp1407
g14
s(I13
I22
tp1408
g14
s(I28
I18
tp1409
g14
s(I26
I14
tp1410
g14
s(I29
I19
tp1411
g14
s(I3
I0
tp1412
g1
(g12
g3
Ntp1413
Rp1414
(dp1415
g16
I55
sbs(I27
I15
tp1416
g14
s(I30
I8
tp1417
g14
s(I28
I8
tp1418
g14
s(I31
I13
tp1419
g1
(g12
g3
Ntp1420
Rp1421
(dp1422
g16
I63
sbs(I29
I13
tp1423
g14
s(I16
I14
tp1424
g1
(g12
g3
Ntp1425
Rp1426
(dp1427
g16
I64
sbs(I6
I17
tp1428
g1
(g12
g3
Ntp1429
Rp1430
(dp1431
g16
I71
sbs(I30
I18
tp1432
g14
s(I19
I11
tp1433
g1
(g12
g3
Ntp1434
Rp1435
(dp1436
g16
I63
sbs(I17
I15
tp1437
g14
s(I7
I20
tp1438
g14
s(I22
I20
tp1439
g14
s(I20
I12
tp1440
g14
s(I18
I12
tp1441
g1
(g12
g3
Ntp1442
Rp1443
(dp1444
g16
I64
sbs(I23
I17
tp1445
g14
s(I21
I1
tp1446
g1
(g12
g3
Ntp1447
Rp1448
(dp1449
g16
I48
sbs(I8
I10
tp1450
g14
s(I22
I14
tp1451
g14
s(I9
I11
tp1452
g14
s(I23
I15
tp1453
g14
s(I10
I0
tp1454
g1
(g12
g3
Ntp1455
Rp1456
(dp1457
g16
I55
sbs(I8
I16
tp1458
g1
(g12
g3
Ntp1459
Rp1460
(dp1461
g16
I71
sbs(I11
I13
tp1462
g14
s(I0
I22
tp1463
g1
(g12
g3
Ntp1464
Rp1465
(dp1466
g16
I46
sbs(I24
I19
tp1467
g14
s(I14
I10
tp1468
g14
s(I12
I14
tp1469
g1
(g12
g3
Ntp1470
Rp1471
(dp1472
g16
I70
sbs(I1
I23
tp1473
g1
(g12
g3
Ntp1474
Rp1475
(dp1476
g16
I14
sbs(I25
I18
tp1477
g14
s(I15
I3
tp1478
g14
s(I13
I15
tp1479
g1
(g12
g3
Ntp1480
Rp1481
(dp1482
g16
I63
sbs(I2
I20
tp1483
g14
s(I26
I9
tp1484
g14
s(I0
I12
tp1485
g1
(g12
g3
Ntp1486
Rp1487
(dp1488
g16
I46
sbs(I3
I9
tp1489
g14
s(I27
I4
tp1490
g1
(g12
g3
Ntp1491
Rp1492
(dp1493
g16
I71
sbs(I1
I9
tp1494
g1
(g12
g3
Ntp1495
Rp1496
(dp1497
g16
I47
sbs(I4
I2
tp1498
g14
s(I28
I7
tp1499
g14
s(I2
I14
tp1500
g14
s(I31
I10
tp1501
g1
(g12
g3
Ntp1502
Rp1503
(dp1504
g16
I56
sbs(I5
I3
tp1505
g14
s(I29
I6
tp1506
g14
s(I16
I5
tp1507
g14
s(I6
I8
tp1508
g14
s(I30
I21
tp1509
g14
s(I19
I16
tp1510
g14
s(I17
I0
tp1511
g1
(g12
g3
Ntp1512
Rp1513
(dp1514
g16
I55
sbs(I7
I13
tp1515
g14
s(I31
I16
tp1516
g1
(g12
g3
Ntp1517
Rp1518
(dp1519
g16
I51
sbs(I20
I11
tp1520
g1
(g12
g3
Ntp1521
Rp1522
(dp1523
g16
I72
sbs(I18
I7
tp1524
g14
s(I21
I10
tp1525
g1
(g12
g3
Ntp1526
Rp1527
(dp1528
g16
I64
sbs(I22
I1
tp1529
g1
(g12
g3
Ntp1530
Rp1531
(dp1532
g16
I48
sbs(I9
I12
tp1533
g14
s(I23
I4
tp1534
g14
s(I10
I11
tp1535
g14
s(I8
I23
tp1536
g1
(g12
g3
Ntp1537
Rp1538
(dp1539
g16
I14
sbs(I11
I2
tp1540
g14
s(I9
I22
tp1541
g14
s(I14
I13
tp1542
g1
(g12
g3
Ntp1543
Rp1544
(dp1545
g16
I70
sbs(I12
I5
tp1546
g14
s(I10
I21
tp1547
g14
s(I15
I8
tp1548
g14
s(I13
I8
tp1549
g14
s(I26
I16
tp1550
g14
s(I0
I3
tp1551
g1
(g12
g3
Ntp1552
Rp1553
(dp1554
g16
I46
sbs(I24
I0
tp1555
g1
(g12
g3
Ntp1556
Rp1557
(dp1558
g16
I55
sbs(I3
I14
tp1559
g14
s(I1
I2
tp1560
g1
(g12
g3
Ntp1561
Rp1562
(dp1563
g16
I47
sbs(I4
I9
tp1564
g14
s(I2
I9
tp1565
g14
s(I5
I12
tp1566
g14
s(I3
I20
tp1567
g14
s(I6
I3
tp1568
g14
s(I4
I23
tp1569
g1
(g12
g3
Ntp1570
Rp1571
(dp1572
g16
I14
sbs(I7
I10
tp1573
g14
s(I5
I22
tp1574
g14
s(I20
I18
tp1575
g14
s(I16
I18
tp1576
g14
s(I21
I19
tp1577
g14
s(I17
I19
tp1578
g14
s(I14
I20
tp1579
g14
s(I15
I17
tp1580
g14
s(I13
I1
tp1581
g1
(g12
g3
Ntp1582
Rp1583
(dp1584
g16
I48
sbs(I11
I17
tp1585
g14
s(I24
I7
tp1586
g1
(g12
g3
Ntp1587
Rp1588
(dp1589
g16
I63
sbs(I27
I18
tp1590
g14
s(I25
I6
tp1591
g1
(g12
g3
Ntp1592
Rp1593
(dp1594
g16
I71
sbs(I28
I21
tp1595
g14
s(I2
I0
tp1596
g1
(g12
g3
Ntp1597
Rp1598
(dp1599
g16
I55
sbs(I26
I5
tp1600
g1
(g12
g3
Ntp1601
Rp1602
(dp1603
g16
I71
sbs(I27
I8
tp1604
g14
s(I30
I7
tp1605
g14
ssS'mouse_pos'
p1606
(I440
I279
tp1607
sS'draw_mouse'
p1608
I01
sba.